; ModuleID = 'source-C-CXX/4/62.c'
source_filename = "source-C-CXX/4/62.c"
target datalayout = "e-m:e-p270:32:32-p271:32:32-p272:64:64-i64:64-f80:128-n8:16:32:64-S128"
target triple = "x86_64-pc-linux-gnu"

@.str = private unnamed_addr constant [4 x i8] c"%lf\00", align 1
@.str.1 = private unnamed_addr constant [3 x i8] c"%s\00", align 1
@a = dso_local global [500 x i8] zeroinitializer, align 16
@b = dso_local global [10000 x i8] zeroinitializer, align 16
@.str.2 = private unnamed_addr constant [6 x i8] c"error\00", align 1
@.str.3 = private unnamed_addr constant [4 x i8] c"yes\00", align 1
@.str.4 = private unnamed_addr constant [3 x i8] c"no\00", align 1

; Function Attrs: nofree nounwind sspstrong uwtable
define dso_local i32 @main() local_unnamed_addr #0 {
  %1 = alloca double, align 8
  %2 = bitcast double* %1 to i8*
  call void @llvm.lifetime.start.p0i8(i64 8, i8* nonnull %2) #4
  %3 = call i32 (i8*, ...) @__isoc99_scanf(i8* getelementptr inbounds ([4 x i8], [4 x i8]* @.str, i64 0, i64 0), double* nonnull %1)
  %4 = call i32 (i8*, ...) @__isoc99_scanf(i8* getelementptr inbounds ([3 x i8], [3 x i8]* @.str.1, i64 0, i64 0), i8* getelementptr inbounds ([500 x i8], [500 x i8]* @a, i64 0, i64 0))
  %5 = call i32 (i8*, ...) @__isoc99_scanf(i8* getelementptr inbounds ([3 x i8], [3 x i8]* @.str.1, i64 0, i64 0), i8* getelementptr inbounds ([10000 x i8], [10000 x i8]* @b, i64 0, i64 0))
  %6 = call i64 @strlen(i8* noundef nonnull dereferenceable(1) getelementptr inbounds ([500 x i8], [500 x i8]* @a, i64 0, i64 0)) #5
  %7 = call i64 @strlen(i8* noundef nonnull dereferenceable(1) getelementptr inbounds ([10000 x i8], [10000 x i8]* @b, i64 0, i64 0)) #5
  %8 = icmp eq i64 %6, %7
  br i1 %8, label %9, label %30

9:                                                ; preds = %0, %17
  %10 = phi i64 [ %21, %17 ], [ 0, %0 ]
  %11 = phi i32 [ %20, %17 ], [ 0, %0 ]
  %12 = getelementptr inbounds [500 x i8], [500 x i8]* @a, i64 0, i64 %10
  %13 = load i8, i8* %12, align 1, !tbaa !5
  switch i8 %13, label %30 [
    i8 0, label %22
    i8 65, label %14
    i8 84, label %14
    i8 71, label %14
    i8 67, label %14
  ]

14:                                               ; preds = %9, %9, %9, %9
  %15 = getelementptr inbounds [10000 x i8], [10000 x i8]* @b, i64 0, i64 %10
  %16 = load i8, i8* %15, align 1, !tbaa !5
  switch i8 %16, label %30 [
    i8 65, label %17
    i8 84, label %17
    i8 71, label %17
    i8 67, label %17
  ]

17:                                               ; preds = %14, %14, %14, %14
  %18 = icmp eq i8 %13, %16
  %19 = zext i1 %18 to i32
  %20 = add nuw nsw i32 %11, %19
  %21 = add nuw i64 %10, 1
  br label %9, !llvm.loop !8

22:                                               ; preds = %9
  %23 = sitofp i32 %11 to double
  %24 = call i64 @strlen(i8* noundef nonnull dereferenceable(1) getelementptr inbounds ([500 x i8], [500 x i8]* @a, i64 0, i64 0)) #5
  %25 = uitofp i64 %24 to double
  %26 = fdiv double %23, %25
  %27 = load double, double* %1, align 8, !tbaa !10
  %28 = fcmp ogt double %26, %27
  %29 = select i1 %28, i8* getelementptr inbounds ([4 x i8], [4 x i8]* @.str.3, i64 0, i64 0), i8* getelementptr inbounds ([3 x i8], [3 x i8]* @.str.4, i64 0, i64 0)
  br label %30

30:                                               ; preds = %14, %9, %22, %0
  %31 = phi i8* [ getelementptr inbounds ([6 x i8], [6 x i8]* @.str.2, i64 0, i64 0), %0 ], [ %29, %22 ], [ getelementptr inbounds ([6 x i8], [6 x i8]* @.str.2, i64 0, i64 0), %9 ], [ getelementptr inbounds ([6 x i8], [6 x i8]* @.str.2, i64 0, i64 0), %14 ]
  %32 = call i32 (i8*, ...) @printf(i8* nonnull dereferenceable(1) %31)
  call void @llvm.lifetime.end.p0i8(i64 8, i8* nonnull %2) #4
  ret i32 0
}

; Function Attrs: argmemonly mustprogress nofree nosync nounwind willreturn
declare void @llvm.lifetime.start.p0i8(i64 immarg, i8* nocapture) #1

; Function Attrs: nofree nounwind
declare noundef i32 @__isoc99_scanf(i8* nocapture noundef readonly, ...) local_unnamed_addr #2

; Function Attrs: argmemonly mustprogress nofree nounwind readonly willreturn
declare i64 @strlen(i8* nocapture) local_unnamed_addr #3

; Function Attrs: nofree nounwind
declare noundef i32 @printf(i8* nocapture noundef readonly, ...) local_unnamed_addr #2

; Function Attrs: argmemonly mustprogress nofree nosync nounwind willreturn
declare void @llvm.lifetime.end.p0i8(i64 immarg, i8* nocapture) #1


!llvm.module.flags = !{!0, !1, !2, !3}
!llvm.ident = !{!4}

!0 = !{i32 1, !"wchar_size", i32 4}
!1 = !{i32 7, !"PIC Level", i32 2}
!2 = !{i32 7, !"PIE Level", i32 2}
!3 = !{i32 7, !"uwtable", i32 1}
!4 = !{!"clang version 13.0.0"}
!5 = !{!6, !6, i64 0}
!6 = !{!"omnipotent char", !7, i64 0}
!7 = !{!"Simple C/C++ TBAA"}
!8 = distinct !{!8, !9}
!9 = !{!"llvm.loop.mustprogress"}
!10 = !{!11, !11, i64 0}
!11 = !{!"double", !6, i64 0}
